target datalayout = "e-m:e-p270:32:32-p271:32:32-p272:64:64-i64:64-i128:128-f80:128-n8:16:32:64-S128"
target triple = "x86_64-pc-linux-gnu"

%struct.UDataSwapper = type { i8, i8, i8, i8, ptr, ptr, ptr, ptr, ptr, ptr, ptr, ptr, ptr, ptr, ptr }
%struct.UTrie2Header = type { i32, i16, i16, i16, i16, i16, i16 }

; Function Attrs: inlinehint mustprogress nounwind uwtable
define internal noundef signext i8 @_ZL9U_FAILURE10UErrorCode(i32 noundef %0) #2 {
  %2 = alloca i32, align 4
  store i32 %0, ptr %2, align 4, !tbaa !11
  %3 = load i32, ptr %2, align 4, !tbaa !11
  %4 = icmp sgt i32 %3, 0
  %5 = zext i1 %4 to i8
  ret i8 %5
}

; Function Attrs: mustprogress uwtable
define i32 @utrie2_swap_77(ptr noundef %0, ptr noundef %1, i32 noundef %2, ptr noundef %3, ptr noundef %4) #0 {
  %6 = alloca i32, align 4
  %7 = alloca ptr, align 8
  %8 = alloca ptr, align 8
  %9 = alloca i32, align 4
  %10 = alloca ptr, align 8
  %11 = alloca ptr, align 8
  %12 = alloca ptr, align 8
  %13 = alloca %struct.UTrie2Header, align 4
  %14 = alloca i32, align 4
  %15 = alloca i32, align 4
  %16 = alloca i32, align 4
  %17 = alloca i32, align 4
  %18 = alloca ptr, align 8
  store ptr %0, ptr %7, align 8, !tbaa !3
  store ptr %1, ptr %8, align 8, !tbaa !8
  store i32 %2, ptr %9, align 4, !tbaa !9
  store ptr %3, ptr %10, align 8, !tbaa !8
  store ptr %4, ptr %11, align 8, !tbaa !8
  call void @llvm.lifetime.start.p0(i64 8, ptr %12) #6
  call void @llvm.lifetime.start.p0(i64 16, ptr %13) #6
  call void @llvm.lifetime.start.p0(i64 4, ptr %14) #6
  call void @llvm.lifetime.start.p0(i64 4, ptr %15) #6
  call void @llvm.lifetime.start.p0(i64 4, ptr %16) #6
  %19 = load ptr, ptr %11, align 8, !tbaa !8
  %20 = load i32, ptr %19, align 4, !tbaa !11
  %21 = call noundef signext i8 @_ZL9U_FAILURE10UErrorCode(i32 noundef %20)
  %22 = icmp ne i8 %21, 0
  br i1 %22, label %23, label %24

23:                                               ; preds = %5
  store i32 0, ptr %6, align 4
  store i32 1, ptr %17, align 4
  br label %222

24:                                               ; preds = %5
  %25 = load ptr, ptr %7, align 8, !tbaa !3
  %26 = icmp eq ptr %25, null
  br i1 %26, label %36, label %27

27:                                               ; preds = %24
  %28 = load ptr, ptr %8, align 8, !tbaa !8
  %29 = icmp eq ptr %28, null
  br i1 %29, label %36, label %30

30:                                               ; preds = %27
  %31 = load i32, ptr %9, align 4, !tbaa !9
  %32 = icmp sge i32 %31, 0
  br i1 %32, label %33, label %38

33:                                               ; preds = %30
  %34 = load ptr, ptr %10, align 8, !tbaa !8
  %35 = icmp eq ptr %34, null
  br i1 %35, label %36, label %38

36:                                               ; preds = %33, %27, %24
  %37 = load ptr, ptr %11, align 8, !tbaa !8
  store i32 1, ptr %37, align 4, !tbaa !11
  store i32 0, ptr %6, align 4
  store i32 1, ptr %17, align 4
  br label %222

38:                                               ; preds = %33, %30
  %39 = load i32, ptr %9, align 4, !tbaa !9
  %40 = icmp sge i32 %39, 0
  br i1 %40, label %41, label %46

41:                                               ; preds = %38
  %42 = load i32, ptr %9, align 4, !tbaa !9
  %43 = icmp slt i32 %42, 16
  br i1 %43, label %44, label %46

44:                                               ; preds = %41
  %45 = load ptr, ptr %11, align 8, !tbaa !8
  store i32 8, ptr %45, align 4, !tbaa !11
  store i32 0, ptr %6, align 4
  store i32 1, ptr %17, align 4
  br label %222

46:                                               ; preds = %41, %38
  %47 = load ptr, ptr %8, align 8, !tbaa !8
  store ptr %47, ptr %12, align 8, !tbaa !25
  %48 = load ptr, ptr %7, align 8, !tbaa !3
  %49 = getelementptr inbounds nuw %struct.UDataSwapper, ptr %48, i32 0, i32 5
  %50 = load ptr, ptr %49, align 8, !tbaa !15
  %51 = load ptr, ptr %12, align 8, !tbaa !25
  %52 = getelementptr inbounds nuw %struct.UTrie2Header, ptr %51, i32 0, i32 0
  %53 = load i32, ptr %52, align 4, !tbaa !27
  %54 = call noundef i32 %50(i32 noundef %53)
  %55 = getelementptr inbounds nuw %struct.UTrie2Header, ptr %13, i32 0, i32 0
  store i32 %54, ptr %55, align 4, !tbaa !27
  %56 = load ptr, ptr %7, align 8, !tbaa !3
  %57 = getelementptr inbounds nuw %struct.UDataSwapper, ptr %56, i32 0, i32 4
  %58 = load ptr, ptr %57, align 8, !tbaa !30
  %59 = load ptr, ptr %12, align 8, !tbaa !25
  %60 = getelementptr inbounds nuw %struct.UTrie2Header, ptr %59, i32 0, i32 1
  %61 = load i16, ptr %60, align 4, !tbaa !31
  %62 = call noundef zeroext i16 %58(i16 noundef zeroext %61)
  %63 = getelementptr inbounds nuw %struct.UTrie2Header, ptr %13, i32 0, i32 1
  store i16 %62, ptr %63, align 4, !tbaa !31
  %64 = load ptr, ptr %7, align 8, !tbaa !3
  %65 = getelementptr inbounds nuw %struct.UDataSwapper, ptr %64, i32 0, i32 4
  %66 = load ptr, ptr %65, align 8, !tbaa !30
  %67 = load ptr, ptr %12, align 8, !tbaa !25
  %68 = getelementptr inbounds nuw %struct.UTrie2Header, ptr %67, i32 0, i32 2
  %69 = load i16, ptr %68, align 2, !tbaa !32
  %70 = call noundef zeroext i16 %66(i16 noundef zeroext %69)
  %71 = getelementptr inbounds nuw %struct.UTrie2Header, ptr %13, i32 0, i32 2
  store i16 %70, ptr %71, align 2, !tbaa !32
  %72 = load ptr, ptr %7, align 8, !tbaa !3
  %73 = getelementptr inbounds nuw %struct.UDataSwapper, ptr %72, i32 0, i32 4
  %74 = load ptr, ptr %73, align 8, !tbaa !30
  %75 = load ptr, ptr %12, align 8, !tbaa !25
  %76 = getelementptr inbounds nuw %struct.UTrie2Header, ptr %75, i32 0, i32 3
  %77 = load i16, ptr %76, align 4, !tbaa !33
  %78 = call noundef zeroext i16 %74(i16 noundef zeroext %77)
  %79 = getelementptr inbounds nuw %struct.UTrie2Header, ptr %13, i32 0, i32 3
  store i16 %78, ptr %79, align 4, !tbaa !33
  %80 = getelementptr inbounds nuw %struct.UTrie2Header, ptr %13, i32 0, i32 1
  %81 = load i16, ptr %80, align 4, !tbaa !31
  %82 = zext i16 %81 to i32
  %83 = and i32 %82, 15
  store i32 %83, ptr %16, align 4, !tbaa !34
  %84 = getelementptr inbounds nuw %struct.UTrie2Header, ptr %13, i32 0, i32 3
  %85 = load i16, ptr %84, align 4, !tbaa !33
  %86 = zext i16 %85 to i32
  %87 = shl i32 %86, 2
  store i32 %87, ptr %14, align 4, !tbaa !9
  %88 = getelementptr inbounds nuw %struct.UTrie2Header, ptr %13, i32 0, i32 0
  %89 = load i32, ptr %88, align 4, !tbaa !27
  %90 = icmp ne i32 %89, 1416784178
  br i1 %90, label %105, label %91

91:                                               ; preds = %46
  %92 = load i32, ptr %16, align 4, !tbaa !34
  %93 = icmp slt i32 %92, 0
  br i1 %93, label %105, label %94

94:                                               ; preds = %91
  %95 = load i32, ptr %16, align 4, !tbaa !34
  %96 = icmp sle i32 2, %95
  br i1 %96, label %105, label %97

97:                                               ; preds = %94
  %98 = getelementptr inbounds nuw %struct.UTrie2Header, ptr %13, i32 0, i32 2
  %99 = load i16, ptr %98, align 2, !tbaa !32
  %100 = zext i16 %99 to i32
  %101 = icmp slt i32 %100, 2112
  br i1 %101, label %105, label %102

102:                                              ; preds = %97
  %103 = load i32, ptr %14, align 4, !tbaa !9
  %104 = icmp slt i32 %103, 192
  br i1 %104, label %105, label %107

105:                                              ; preds = %102, %97, %94, %91, %46
  %106 = load ptr, ptr %11, align 8, !tbaa !8
  store i32 3, ptr %106, align 4, !tbaa !11
  store i32 0, ptr %6, align 4
  store i32 1, ptr %17, align 4
  br label %222

107:                                              ; preds = %102
  %108 = getelementptr inbounds nuw %struct.UTrie2Header, ptr %13, i32 0, i32 2
  %109 = load i16, ptr %108, align 2, !tbaa !32
  %110 = zext i16 %109 to i32
  %111 = mul nsw i32 %110, 2
  %112 = sext i32 %111 to i64
  %113 = add i64 16, %112
  %114 = trunc i64 %113 to i32
  store i32 %114, ptr %15, align 4, !tbaa !9
  %115 = load i32, ptr %16, align 4, !tbaa !34
  switch i32 %115, label %126 [
    i32 0, label %116
    i32 1, label %121
  ]

116:                                              ; preds = %107
  %117 = load i32, ptr %14, align 4, !tbaa !9
  %118 = mul nsw i32 %117, 2
  %119 = load i32, ptr %15, align 4, !tbaa !9
  %120 = add nsw i32 %119, %118
  store i32 %120, ptr %15, align 4, !tbaa !9
  br label %128

121:                                              ; preds = %107
  %122 = load i32, ptr %14, align 4, !tbaa !9
  %123 = mul nsw i32 %122, 4
  %124 = load i32, ptr %15, align 4, !tbaa !9
  %125 = add nsw i32 %124, %123
  store i32 %125, ptr %15, align 4, !tbaa !9
  br label %128

126:                                              ; preds = %107
  %127 = load ptr, ptr %11, align 8, !tbaa !8
  store i32 3, ptr %127, align 4, !tbaa !11
  store i32 0, ptr %6, align 4
  store i32 1, ptr %17, align 4
  br label %222

128:                                              ; preds = %121, %116
  %129 = load i32, ptr %9, align 4, !tbaa !9
  %130 = icmp sge i32 %129, 0
  br i1 %130, label %131, label %220

131:                                              ; preds = %128
  call void @llvm.lifetime.start.p0(i64 8, ptr %18) #6
  %132 = load i32, ptr %9, align 4, !tbaa !9
  %133 = load i32, ptr %15, align 4, !tbaa !9
  %134 = icmp slt i32 %132, %133
  br i1 %134, label %135, label %137

135:                                              ; preds = %131
  %136 = load ptr, ptr %11, align 8, !tbaa !8
  store i32 8, ptr %136, align 4, !tbaa !11
  store i32 0, ptr %6, align 4
  store i32 1, ptr %17, align 4
  br label %217

137:                                              ; preds = %131
  %138 = load ptr, ptr %10, align 8, !tbaa !8
  store ptr %138, ptr %18, align 8, !tbaa !25
  %139 = load ptr, ptr %7, align 8, !tbaa !3
  %140 = getelementptr inbounds nuw %struct.UDataSwapper, ptr %139, i32 0, i32 10
  %141 = load ptr, ptr %140, align 8, !tbaa !23
  %142 = load ptr, ptr %7, align 8, !tbaa !3
  %143 = load ptr, ptr %12, align 8, !tbaa !25
  %144 = getelementptr inbounds nuw %struct.UTrie2Header, ptr %143, i32 0, i32 0
  %145 = load ptr, ptr %18, align 8, !tbaa !25
  %146 = getelementptr inbounds nuw %struct.UTrie2Header, ptr %145, i32 0, i32 0
  %147 = load ptr, ptr %11, align 8, !tbaa !8
  %148 = call noundef i32 %141(ptr noundef %142, ptr noundef %144, i32 noundef 4, ptr noundef %146, ptr noundef %147)
  %149 = load ptr, ptr %7, align 8, !tbaa !3
  %150 = getelementptr inbounds nuw %struct.UDataSwapper, ptr %149, i32 0, i32 9
  %151 = load ptr, ptr %150, align 8, !tbaa !24
  %152 = load ptr, ptr %7, align 8, !tbaa !3
  %153 = load ptr, ptr %12, align 8, !tbaa !25
  %154 = getelementptr inbounds nuw %struct.UTrie2Header, ptr %153, i32 0, i32 1
  %155 = load ptr, ptr %18, align 8, !tbaa !25
  %156 = getelementptr inbounds nuw %struct.UTrie2Header, ptr %155, i32 0, i32 1
  %157 = load ptr, ptr %11, align 8, !tbaa !8
  %158 = call noundef i32 %151(ptr noundef %152, ptr noundef %154, i32 noundef 12, ptr noundef %156, ptr noundef %157)
  %159 = load i32, ptr %16, align 4, !tbaa !34
  switch i32 %159, label %214 [
    i32 0, label %160
    i32 1, label %177
  ]

160:                                              ; preds = %137
  %161 = load ptr, ptr %7, align 8, !tbaa !3
  %162 = getelementptr inbounds nuw %struct.UDataSwapper, ptr %161, i32 0, i32 9
  %163 = load ptr, ptr %162, align 8, !tbaa !24
  %164 = load ptr, ptr %7, align 8, !tbaa !3
  %165 = load ptr, ptr %12, align 8, !tbaa !25
  %166 = getelementptr inbounds %struct.UTrie2Header, ptr %165, i64 1
  %167 = getelementptr inbounds nuw %struct.UTrie2Header, ptr %13, i32 0, i32 2
  %168 = load i16, ptr %167, align 2, !tbaa !32
  %169 = zext i16 %168 to i32
  %170 = load i32, ptr %14, align 4, !tbaa !9
  %171 = add nsw i32 %169, %170
  %172 = mul nsw i32 %171, 2
  %173 = load ptr, ptr %18, align 8, !tbaa !25
  %174 = getelementptr inbounds %struct.UTrie2Header, ptr %173, i64 1
  %175 = load ptr, ptr %11, align 8, !tbaa !8
  %176 = call noundef i32 %163(ptr noundef %164, ptr noundef %166, i32 noundef %172, ptr noundef %174, ptr noundef %175)
  br label %216

177:                                              ; preds = %137
  %178 = load ptr, ptr %7, align 8, !tbaa !3
  %179 = getelementptr inbounds nuw %struct.UDataSwapper, ptr %178, i32 0, i32 9
  %180 = load ptr, ptr %179, align 8, !tbaa !24
  %181 = load ptr, ptr %7, align 8, !tbaa !3
  %182 = load ptr, ptr %12, align 8, !tbaa !25
  %183 = getelementptr inbounds %struct.UTrie2Header, ptr %182, i64 1
  %184 = getelementptr inbounds nuw %struct.UTrie2Header, ptr %13, i32 0, i32 2
  %185 = load i16, ptr %184, align 2, !tbaa !32
  %186 = zext i16 %185 to i32
  %187 = mul nsw i32 %186, 2
  %188 = load ptr, ptr %18, align 8, !tbaa !25
  %189 = getelementptr inbounds %struct.UTrie2Header, ptr %188, i64 1
  %190 = load ptr, ptr %11, align 8, !tbaa !8
  %191 = call noundef i32 %180(ptr noundef %181, ptr noundef %183, i32 noundef %187, ptr noundef %189, ptr noundef %190)
  %192 = load ptr, ptr %7, align 8, !tbaa !3
  %193 = getelementptr inbounds nuw %struct.UDataSwapper, ptr %192, i32 0, i32 10
  %194 = load ptr, ptr %193, align 8, !tbaa !23
  %195 = load ptr, ptr %7, align 8, !tbaa !3
  %196 = load ptr, ptr %12, align 8, !tbaa !25
  %197 = getelementptr inbounds %struct.UTrie2Header, ptr %196, i64 1
  %198 = getelementptr inbounds nuw %struct.UTrie2Header, ptr %13, i32 0, i32 2
  %199 = load i16, ptr %198, align 2, !tbaa !32
  %200 = zext i16 %199 to i32
  %201 = sext i32 %200 to i64
  %202 = getelementptr inbounds i16, ptr %197, i64 %201
  %203 = load i32, ptr %14, align 4, !tbaa !9
  %204 = mul nsw i32 %203, 4
  %205 = load ptr, ptr %18, align 8, !tbaa !25
  %206 = getelementptr inbounds %struct.UTrie2Header, ptr %205, i64 1
  %207 = getelementptr inbounds nuw %struct.UTrie2Header, ptr %13, i32 0, i32 2
  %208 = load i16, ptr %207, align 2, !tbaa !32
  %209 = zext i16 %208 to i32
  %210 = sext i32 %209 to i64
  %211 = getelementptr inbounds i16, ptr %206, i64 %210
  %212 = load ptr, ptr %11, align 8, !tbaa !8
  %213 = call noundef i32 %194(ptr noundef %195, ptr noundef %202, i32 noundef %204, ptr noundef %211, ptr noundef %212)
  br label %216

214:                                              ; preds = %137
  %215 = load ptr, ptr %11, align 8, !tbaa !8
  store i32 3, ptr %215, align 4, !tbaa !11
  store i32 0, ptr %6, align 4
  store i32 1, ptr %17, align 4
  br label %217

216:                                              ; preds = %177, %160
  store i32 0, ptr %17, align 4
  br label %217

217:                                              ; preds = %216, %214, %135
  call void @llvm.lifetime.end.p0(i64 8, ptr %18) #6
  %218 = load i32, ptr %17, align 4
  switch i32 %218, label %222 [
    i32 0, label %219
  ]

219:                                              ; preds = %217
  br label %220

220:                                              ; preds = %219, %128
  %221 = load i32, ptr %15, align 4, !tbaa !9
  store i32 %221, ptr %6, align 4
  store i32 1, ptr %17, align 4
  br label %222

222:                                              ; preds = %220, %217, %126, %105, %44, %36, %23
  call void @llvm.lifetime.end.p0(i64 4, ptr %16) #6
  call void @llvm.lifetime.end.p0(i64 4, ptr %15) #6
  call void @llvm.lifetime.end.p0(i64 4, ptr %14) #6
  call void @llvm.lifetime.end.p0(i64 16, ptr %13) #6
  call void @llvm.lifetime.end.p0(i64 8, ptr %12) #6
  %223 = load i32, ptr %6, align 4
  ret i32 %223
}