; Function Attrs: mustprogress uwtable
define range(i32 0, 1179647) i32 @utrie2_swap_77(ptr noundef %0, ptr noundef %1, i32 noundef %2, ptr noundef %3, ptr noundef %4) local_unnamed_addr #0 {
  %6 = load i32, ptr %4, align 4, !tbaa !3
  %7 = icmp slt i32 %6, 1
  br i1 %7, label %8, label %.thread

8:                                                ; preds = %5
  %9 = icmp eq ptr %0, null
  %10 = icmp eq ptr %1, null
  %or.cond = or i1 %9, %10
  br i1 %or.cond, label %14, label %11

11:                                               ; preds = %8
  %12 = icmp sgt i32 %2, -1
  %13 = icmp eq ptr %3, null
  %or.cond3 = and i1 %12, %13
  br i1 %or.cond3, label %14, label %15

14:                                               ; preds = %11, %8
  store i32 1, ptr %4, align 4, !tbaa !3
  br label %.thread

15:                                               ; preds = %11
  %or.cond5 = icmp ult i32 %2, 16
  br i1 %or.cond5, label %16, label %17

16:                                               ; preds = %15
  store i32 8, ptr %4, align 4, !tbaa !3
  br label %.thread

17:                                               ; preds = %15
  %18 = getelementptr inbounds nuw i8, ptr %0, i64 16
  %19 = load ptr, ptr %18, align 8, !tbaa !7
  %20 = load i32, ptr %1, align 4, !tbaa !18
  %21 = tail call noundef i32 %19(i32 noundef %20)
  %22 = getelementptr inbounds nuw i8, ptr %0, i64 8
  %23 = load ptr, ptr %22, align 8, !tbaa !21
  %24 = getelementptr inbounds nuw i8, ptr %1, i64 4
  %25 = load i16, ptr %24, align 4, !tbaa !22
  %26 = tail call noundef zeroext i16 %23(i16 noundef zeroext %25)
  %27 = load ptr, ptr %22, align 8, !tbaa !21
  %28 = getelementptr inbounds nuw i8, ptr %1, i64 6
  %29 = load i16, ptr %28, align 2, !tbaa !23
  %30 = tail call noundef zeroext i16 %27(i16 noundef zeroext %29)
  %31 = load ptr, ptr %22, align 8, !tbaa !21
  %32 = getelementptr inbounds nuw i8, ptr %1, i64 8
  %33 = load i16, ptr %32, align 4, !tbaa !24
  %34 = tail call noundef zeroext i16 %31(i16 noundef zeroext %33)
  %35 = and i16 %26, 14
  %36 = icmp ne i32 %21, 1416784178
  %37 = icmp ne i16 %35, 0
  %or.cond9 = or i1 %36, %37
  %38 = icmp ult i16 %30, 2112
  %or.cond13 = or i1 %or.cond9, %38
  %39 = icmp ult i16 %34, 48
  %or.cond15 = or i1 %or.cond13, %39
  br i1 %or.cond15, label %40, label %41

40:                                               ; preds = %17
  store i32 3, ptr %4, align 4, !tbaa !3
  br label %.thread

41:                                               ; preds = %17
  %42 = zext i16 %30 to i32
  %43 = zext i16 %34 to i32
  %44 = shl nuw nsw i32 %42, 1
  %narrow = add nuw nsw i32 %44, 16
  %trunc = trunc i16 %26 to i1
  %45 = shl nuw nsw i32 %43, 4
  %46 = shl nuw nsw i32 %43, 3
  %.pn = select i1 %trunc, i32 %45, i32 %46
  %.085 = add nuw nsw i32 %narrow, %.pn
  br i1 %12, label %47, label %.thread

47:                                               ; preds = %41
  %.not93 = icmp samesign ult i32 %2, %.085
  br i1 %.not93, label %70, label %48

48:                                               ; preds = %47
  %49 = getelementptr inbounds nuw i8, ptr %0, i64 56
  %50 = load ptr, ptr %49, align 8, !tbaa !16
  %51 = tail call noundef i32 %50(ptr noundef nonnull %0, ptr noundef nonnull %1, i32 noundef 4, ptr noundef %3, ptr noundef nonnull %4)
  %52 = getelementptr inbounds nuw i8, ptr %0, i64 48
  %53 = load ptr, ptr %52, align 8, !tbaa !17
  %54 = getelementptr inbounds nuw i8, ptr %3, i64 4
  %55 = tail call noundef i32 %53(ptr noundef nonnull %0, ptr noundef nonnull %24, i32 noundef 12, ptr noundef nonnull %54, ptr noundef nonnull %4)
  %56 = load ptr, ptr %52, align 8, !tbaa !17
  %57 = getelementptr inbounds nuw i8, ptr %1, i64 16
  br i1 %trunc, label %62, label %58

58:                                               ; preds = %48
  %59 = add nuw nsw i32 %46, %44
  %60 = getelementptr inbounds nuw i8, ptr %3, i64 16
  %61 = tail call noundef i32 %56(ptr noundef nonnull %0, ptr noundef nonnull %57, i32 noundef %59, ptr noundef nonnull %60, ptr noundef nonnull %4)
  br label %.thread

62:                                               ; preds = %48
  %63 = getelementptr inbounds nuw i8, ptr %3, i64 16
  %64 = tail call noundef i32 %56(ptr noundef nonnull %0, ptr noundef nonnull %57, i32 noundef %44, ptr noundef nonnull %63, ptr noundef nonnull %4)
  %65 = load ptr, ptr %49, align 8, !tbaa !16
  %66 = zext i16 %30 to i64
  %67 = getelementptr inbounds nuw i16, ptr %57, i64 %66
  %68 = getelementptr inbounds nuw i16, ptr %63, i64 %66
  %69 = tail call noundef i32 %65(ptr noundef nonnull %0, ptr noundef nonnull %67, i32 noundef %45, ptr noundef nonnull %68, ptr noundef nonnull %4)
  br label %.thread

70:                                               ; preds = %47
  store i32 8, ptr %4, align 4, !tbaa !3
  br label %.thread

.thread:                                          ; preds = %62, %58, %41, %70, %5, %40, %16, %14
  %.0 = phi i32 [ 0, %14 ], [ 0, %16 ], [ 0, %40 ], [ 0, %70 ], [ 0, %5 ], [ %.085, %41 ], [ %.085, %58 ], [ %.085, %62 ]
  ret i32 %.0
}